target datalayout = "e-m:e-p270:32:32-p271:32:32-p272:64:64-i64:64-i128:128-f80:128-n8:16:32:64-S128"
target triple = "x86_64-pc-linux-gnu"

%struct.Abc_Frame_t_ = type { ptr, ptr, ptr, ptr, ptr, ptr, ptr, ptr, ptr, ptr, i32, i32, i32, i32, i32, ptr, float, float, i32, i32, ptr, ptr, ptr, double, double, ptr, ptr, ptr, ptr, ptr, ptr, ptr, ptr, ptr, ptr, ptr, ptr, float, ptr, i32, ptr, ptr, ptr, ptr, ptr, i32, i32, i32, i32, i32, i32, ptr, ptr, ptr, ptr, ptr, ptr, i32, i32, ptr, ptr, ptr, ptr, ptr, ptr, ptr, ptr, ptr, ptr, ptr, ptr, ptr, ptr, ptr, ptr, ptr, ptr, ptr, ptr, ptr, ptr, ptr, ptr, ptr, ptr, ptr, ptr, ptr, ptr }
%struct.Vec_Ptr_t_ = type { i32, i32, ptr }

; Function Attrs: nounwind uwtable
define internal ptr @Vec_PtrEntry(ptr noundef %0, i32 noundef %1) #0 {
  %3 = alloca ptr, align 8
  %4 = alloca i32, align 4
  store ptr %0, ptr %3, align 8
  store i32 %1, ptr %4, align 4
  %5 = load ptr, ptr %3, align 8
  %6 = getelementptr inbounds %struct.Vec_Ptr_t_, ptr %5, i32 0, i32 2
  %7 = load ptr, ptr %6, align 8
  %8 = load i32, ptr %4, align 4
  %9 = sext i32 %8 to i64
  %10 = getelementptr inbounds ptr, ptr %7, i64 %9
  %11 = load ptr, ptr %10, align 8
  ret ptr %11
}

; Function Attrs: nounwind uwtable
define internal i32 @Vec_PtrSize(ptr noundef %0) #0 {
  %2 = alloca ptr, align 8
  store ptr %0, ptr %2, align 8
  %3 = load ptr, ptr %2, align 8
  %4 = getelementptr inbounds %struct.Vec_Ptr_t_, ptr %3, i32 0, i32 1
  %5 = load i32, ptr %4, align 4
  ret i32 %5
}

; Function Attrs: nounwind uwtable
define internal void @Vec_PtrFree(ptr noundef %0) #0 {
  %2 = alloca ptr, align 8
  store ptr %0, ptr %2, align 8
  %3 = load ptr, ptr %2, align 8
  %4 = getelementptr inbounds %struct.Vec_Ptr_t_, ptr %3, i32 0, i32 2
  %5 = load ptr, ptr %4, align 8
  %6 = icmp ne ptr %5, null
  br i1 %6, label %7, label %13

7:                                                ; preds = %1
  %8 = load ptr, ptr %2, align 8
  %9 = getelementptr inbounds %struct.Vec_Ptr_t_, ptr %8, i32 0, i32 2
  %10 = load ptr, ptr %9, align 8
  call void @free(ptr noundef %10) #9
  %11 = load ptr, ptr %2, align 8
  %12 = getelementptr inbounds %struct.Vec_Ptr_t_, ptr %11, i32 0, i32 2
  store ptr null, ptr %12, align 8
  br label %14

13:                                               ; preds = %1
  br label %14

14:                                               ; preds = %13, %7
  %15 = load ptr, ptr %2, align 8
  %16 = icmp ne ptr %15, null
  br i1 %16, label %17, label %19

17:                                               ; preds = %14
  %18 = load ptr, ptr %2, align 8
  call void @free(ptr noundef %18) #9
  store ptr null, ptr %2, align 8
  br label %20

19:                                               ; preds = %14
  br label %20

20:                                               ; preds = %19, %17
  ret void
}

; Function Attrs: nounwind uwtable
define internal void @Vec_PtrFreeData(ptr noundef %0) #0 {
  %2 = alloca ptr, align 8
  %3 = alloca ptr, align 8
  %4 = alloca i32, align 4
  store ptr %0, ptr %2, align 8
  %5 = load ptr, ptr %2, align 8
  %6 = icmp eq ptr %5, null
  br i1 %6, label %7, label %8

7:                                                ; preds = %1
  br label %39

8:                                                ; preds = %1
  store i32 0, ptr %4, align 4
  br label %9

9:                                                ; preds = %36, %8
  %10 = load i32, ptr %4, align 4
  %11 = load ptr, ptr %2, align 8
  %12 = call i32 @Vec_PtrSize(ptr noundef %11)
  %13 = icmp slt i32 %10, %12
  br i1 %13, label %14, label %18

14:                                               ; preds = %9
  %15 = load ptr, ptr %2, align 8
  %16 = load i32, ptr %4, align 4
  %17 = call ptr @Vec_PtrEntry(ptr noundef %15, i32 noundef %16)
  store ptr %17, ptr %3, align 8
  br label %18

18:                                               ; preds = %14, %9
  %19 = phi i1 [ false, %9 ], [ true, %14 ]
  br i1 %19, label %20, label %39

20:                                               ; preds = %18
  %21 = load ptr, ptr %3, align 8
  %22 = inttoptr i64 1 to ptr
  %23 = icmp ne ptr %21, %22
  br i1 %23, label %24, label %35

24:                                               ; preds = %20
  %25 = load ptr, ptr %3, align 8
  %26 = inttoptr i64 2 to ptr
  %27 = icmp ne ptr %25, %26
  br i1 %27, label %28, label %35

28:                                               ; preds = %24
  %29 = load ptr, ptr %3, align 8
  %30 = icmp ne ptr %29, null
  br i1 %30, label %31, label %33

31:                                               ; preds = %28
  %32 = load ptr, ptr %3, align 8
  call void @free(ptr noundef %32) #9
  store ptr null, ptr %3, align 8
  br label %34

33:                                               ; preds = %28
  br label %34

34:                                               ; preds = %33, %31
  br label %35

35:                                               ; preds = %34, %24, %20
  br label %36

36:                                               ; preds = %35
  %37 = load i32, ptr %4, align 4
  %38 = add nsw i32 %37, 1
  store i32 %38, ptr %4, align 4
  br label %9, !llvm.loop !36

39:                                               ; preds = %18, %7
  ret void
}

; Function Attrs: nounwind uwtable
define internal void @Vec_PtrFreeFree(ptr noundef %0) #0 {
  %2 = alloca ptr, align 8
  store ptr %0, ptr %2, align 8
  %3 = load ptr, ptr %2, align 8
  %4 = icmp eq ptr %3, null
  br i1 %4, label %5, label %6

5:                                                ; preds = %1
  br label %9

6:                                                ; preds = %1
  %7 = load ptr, ptr %2, align 8
  call void @Vec_PtrFreeData(ptr noundef %7)
  %8 = load ptr, ptr %2, align 8
  call void @Vec_PtrFree(ptr noundef %8)
  br label %9

9:                                                ; preds = %6, %5
  ret void
}

; Function Attrs: nounwind uwtable
define void @Cmd_End(ptr noundef %0) #0 {
  %2 = alloca ptr, align 8
  %3 = alloca ptr, align 8
  %4 = alloca ptr, align 8
  %5 = alloca ptr, align 8
  store ptr %0, ptr %2, align 8
  %6 = load ptr, ptr %2, align 8
  call void @Cmd_HistoryWrite(ptr noundef %6, i32 noundef 1000000000)
  %7 = load ptr, ptr %2, align 8
  %8 = getelementptr inbounds %struct.Abc_Frame_t_, ptr %7, i32 0, i32 2
  %9 = load ptr, ptr %8, align 8
  %10 = call ptr @st__init_gen(ptr noundef %9)
  store ptr %10, ptr %3, align 8
  br label %11

11:                                               ; preds = %19, %1
  %12 = load ptr, ptr %3, align 8
  %13 = call i32 @st__gen(ptr noundef %12, ptr noundef %4, ptr noundef %5)
  %14 = icmp ne i32 %13, 0
  br i1 %14, label %17, label %15

15:                                               ; preds = %11
  %16 = load ptr, ptr %3, align 8
  call void @st__free_gen(ptr noundef %16)
  br label %17

17:                                               ; preds = %15, %11
  %18 = phi i1 [ true, %11 ], [ false, %15 ]
  br i1 %18, label %19, label %21

19:                                               ; preds = %17
  %20 = load ptr, ptr %5, align 8
  call void @CmdCommandFree(ptr noundef %20)
  br label %11, !llvm.loop !32

21:                                               ; preds = %17
  %22 = load ptr, ptr %2, align 8
  %23 = getelementptr inbounds %struct.Abc_Frame_t_, ptr %22, i32 0, i32 2
  %24 = load ptr, ptr %23, align 8
  call void @st__free_table(ptr noundef %24)
  %25 = load ptr, ptr %2, align 8
  %26 = getelementptr inbounds %struct.Abc_Frame_t_, ptr %25, i32 0, i32 3
  %27 = load ptr, ptr %26, align 8
  %28 = call ptr @st__init_gen(ptr noundef %27)
  store ptr %28, ptr %3, align 8
  br label %29

29:                                               ; preds = %37, %21
  %30 = load ptr, ptr %3, align 8
  %31 = call i32 @st__gen(ptr noundef %30, ptr noundef %4, ptr noundef %5)
  %32 = icmp ne i32 %31, 0
  br i1 %32, label %35, label %33

33:                                               ; preds = %29
  %34 = load ptr, ptr %3, align 8
  call void @st__free_gen(ptr noundef %34)
  br label %35

35:                                               ; preds = %33, %29
  %36 = phi i1 [ true, %29 ], [ false, %33 ]
  br i1 %36, label %37, label %39

37:                                               ; preds = %35
  %38 = load ptr, ptr %5, align 8
  call void @CmdCommandAliasFree(ptr noundef %38)
  br label %29, !llvm.loop !33

39:                                               ; preds = %35
  %40 = load ptr, ptr %2, align 8
  %41 = getelementptr inbounds %struct.Abc_Frame_t_, ptr %40, i32 0, i32 3
  %42 = load ptr, ptr %41, align 8
  call void @st__free_table(ptr noundef %42)
  %43 = load ptr, ptr %2, align 8
  %44 = getelementptr inbounds %struct.Abc_Frame_t_, ptr %43, i32 0, i32 4
  %45 = load ptr, ptr %44, align 8
  %46 = call ptr @st__init_gen(ptr noundef %45)
  store ptr %46, ptr %3, align 8
  br label %47

47:                                               ; preds = %67, %39
  %48 = load ptr, ptr %3, align 8
  %49 = call i32 @st__gen(ptr noundef %48, ptr noundef %4, ptr noundef %5)
  %50 = icmp ne i32 %49, 0
  br i1 %50, label %53, label %51

51:                                               ; preds = %47
  %52 = load ptr, ptr %3, align 8
  call void @st__free_gen(ptr noundef %52)
  br label %53

53:                                               ; preds = %51, %47
  %54 = phi i1 [ true, %47 ], [ false, %51 ]
  br i1 %54, label %55, label %68

55:                                               ; preds = %53
  %56 = load ptr, ptr %4, align 8
  %57 = icmp ne ptr %56, null
  br i1 %57, label %58, label %60

58:                                               ; preds = %55
  %59 = load ptr, ptr %4, align 8
  call void @free(ptr noundef %59) #9
  store ptr null, ptr %4, align 8
  br label %61

60:                                               ; preds = %55
  br label %61

61:                                               ; preds = %60, %58
  %62 = load ptr, ptr %5, align 8
  %63 = icmp ne ptr %62, null
  br i1 %63, label %64, label %66

64:                                               ; preds = %61
  %65 = load ptr, ptr %5, align 8
  call void @free(ptr noundef %65) #9
  store ptr null, ptr %5, align 8
  br label %67

66:                                               ; preds = %61
  br label %67

67:                                               ; preds = %66, %64
  br label %47, !llvm.loop !34

68:                                               ; preds = %53
  %69 = load ptr, ptr %2, align 8
  %70 = getelementptr inbounds %struct.Abc_Frame_t_, ptr %69, i32 0, i32 4
  %71 = load ptr, ptr %70, align 8
  call void @st__free_table(ptr noundef %71)
  %72 = load ptr, ptr %2, align 8
  %73 = getelementptr inbounds %struct.Abc_Frame_t_, ptr %72, i32 0, i32 5
  %74 = load ptr, ptr %73, align 8
  call void @Vec_PtrFreeFree(ptr noundef %74)
  ret void
}