; Function Attrs: nounwind uwtable
define void @Cmd_End(ptr noundef %0) local_unnamed_addr #0 {
  %2 = alloca ptr, align 8
  %3 = alloca ptr, align 8
  tail call void @Cmd_HistoryWrite(ptr noundef %0, i32 noundef 1000000000) #17
  %4 = getelementptr inbounds nuw i8, ptr %0, i64 16
  %5 = load ptr, ptr %4, align 8
  %6 = tail call ptr @st__init_gen(ptr noundef %5) #17
  %7 = call i32 @st__gen(ptr noundef %6, ptr noundef nonnull %2, ptr noundef nonnull %3) #17
  %.not23 = icmp eq i32 %7, 0
  br i1 %.not23, label %._crit_edge, label %.critedge

._crit_edge:                                      ; preds = %.critedge, %1
  call void @st__free_gen(ptr noundef %6) #17
  %8 = load ptr, ptr %4, align 8
  call void @st__free_table(ptr noundef %8) #17
  %9 = getelementptr inbounds nuw i8, ptr %0, i64 24
  %10 = load ptr, ptr %9, align 8
  %11 = call ptr @st__init_gen(ptr noundef %10) #17
  %12 = call i32 @st__gen(ptr noundef %11, ptr noundef nonnull %2, ptr noundef nonnull %3) #17
  %.not1924 = icmp eq i32 %12, 0
  br i1 %.not1924, label %._crit_edge25, label %.critedge2

.critedge:                                        ; preds = %1, %.critedge
  %13 = load ptr, ptr %3, align 8
  call void @CmdCommandFree(ptr noundef %13) #17
  %14 = call i32 @st__gen(ptr noundef %6, ptr noundef nonnull %2, ptr noundef nonnull %3) #17
  %.not = icmp eq i32 %14, 0
  br i1 %.not, label %._crit_edge, label %.critedge, !llvm.loop !32

._crit_edge25:                                    ; preds = %.critedge2, %._crit_edge
  call void @st__free_gen(ptr noundef %11) #17
  %15 = load ptr, ptr %9, align 8
  call void @st__free_table(ptr noundef %15) #17
  %16 = getelementptr inbounds nuw i8, ptr %0, i64 32
  %17 = load ptr, ptr %16, align 8
  %18 = call ptr @st__init_gen(ptr noundef %17) #17
  %19 = call i32 @st__gen(ptr noundef %18, ptr noundef nonnull %2, ptr noundef nonnull %3) #17
  %.not2026 = icmp eq i32 %19, 0
  br i1 %.not2026, label %._crit_edge27, label %.critedge4

.critedge2:                                       ; preds = %._crit_edge, %.critedge2
  %20 = load ptr, ptr %3, align 8
  call void @CmdCommandAliasFree(ptr noundef %20) #17
  %21 = call i32 @st__gen(ptr noundef %11, ptr noundef nonnull %2, ptr noundef nonnull %3) #17
  %.not19 = icmp eq i32 %21, 0
  br i1 %.not19, label %._crit_edge25, label %.critedge2, !llvm.loop !33

._crit_edge27:                                    ; preds = %45, %._crit_edge25
  call void @st__free_gen(ptr noundef %18) #17
  %22 = load ptr, ptr %16, align 8
  call void @st__free_table(ptr noundef %22) #17
  %23 = getelementptr inbounds nuw i8, ptr %0, i64 40
  %24 = load ptr, ptr %23, align 8
  %25 = icmp eq ptr %24, null
  br i1 %25, label %Vec_PtrFreeFree.exit, label %26

26:                                               ; preds = %._crit_edge27
  %27 = getelementptr i8, ptr %24, i64 4
  %.val16.i.i = load i32, ptr %27, align 4
  %28 = icmp sgt i32 %.val16.i.i, 0
  br i1 %28, label %.lr.ph.i.i, label %Vec_PtrFreeData.exit.i

.lr.ph.i.i:                                       ; preds = %26
  %29 = getelementptr i8, ptr %24, i64 8
  br label %30

30:                                               ; preds = %34, %.lr.ph.i.i
  %.val19.i.i = phi i32 [ %.val16.i.i, %.lr.ph.i.i ], [ %.val.i.i, %34 ]
  %indvars.iv.i.i = phi i64 [ 0, %.lr.ph.i.i ], [ %indvars.iv.next.i.i, %34 ]
  %.val15.i.i = load ptr, ptr %29, align 8
  %31 = getelementptr inbounds nuw ptr, ptr %.val15.i.i, i64 %indvars.iv.i.i
  %32 = load ptr, ptr %31, align 8
  %switch.i.i = icmp ult ptr %32, inttoptr (i64 3 to ptr)
  br i1 %switch.i.i, label %34, label %33

33:                                               ; preds = %30
  call void @free(ptr noundef %32) #17
  %.val.pre.i.i = load i32, ptr %27, align 4
  br label %34

34:                                               ; preds = %33, %30
  %.val.i.i = phi i32 [ %.val19.i.i, %30 ], [ %.val.pre.i.i, %33 ]
  %indvars.iv.next.i.i = add nuw nsw i64 %indvars.iv.i.i, 1
  %35 = sext i32 %.val.i.i to i64
  %36 = icmp slt i64 %indvars.iv.next.i.i, %35
  br i1 %36, label %30, label %Vec_PtrFreeData.exit.i, !llvm.loop !25

Vec_PtrFreeData.exit.i:                           ; preds = %34, %26
  %37 = getelementptr inbounds nuw i8, ptr %24, i64 8
  %38 = load ptr, ptr %37, align 8
  %.not.i.i = icmp eq ptr %38, null
  br i1 %.not.i.i, label %Vec_PtrFree.exit.i, label %39

39:                                               ; preds = %Vec_PtrFreeData.exit.i
  call void @free(ptr noundef nonnull %38) #17
  br label %Vec_PtrFree.exit.i

Vec_PtrFree.exit.i:                               ; preds = %39, %Vec_PtrFreeData.exit.i
  call void @free(ptr noundef nonnull %24) #17
  br label %Vec_PtrFreeFree.exit

Vec_PtrFreeFree.exit:                             ; preds = %._crit_edge27, %Vec_PtrFree.exit.i
  ret void

.critedge4:                                       ; preds = %._crit_edge25, %45
  %40 = load ptr, ptr %2, align 8
  %.not21 = icmp eq ptr %40, null
  br i1 %.not21, label %42, label %41

41:                                               ; preds = %.critedge4
  call void @free(ptr noundef nonnull %40) #17
  store ptr null, ptr %2, align 8
  br label %42

42:                                               ; preds = %.critedge4, %41
  %43 = load ptr, ptr %3, align 8
  %.not22 = icmp eq ptr %43, null
  br i1 %.not22, label %45, label %44

44:                                               ; preds = %42
  call void @free(ptr noundef nonnull %43) #17
  store ptr null, ptr %3, align 8
  br label %45

45:                                               ; preds = %42, %44
  %46 = call i32 @st__gen(ptr noundef %18, ptr noundef nonnull %2, ptr noundef nonnull %3) #17
  %.not20 = icmp eq i32 %46, 0
  br i1 %.not20, label %._crit_edge27, label %.critedge4, !llvm.loop !34
}